; Function Attrs: mustprogress nofree norecurse nosync nounwind willreturn memory(argmem: readwrite) uwtable
define dso_local noundef zeroext i1 @_ZN4Luau18FindNthOccurenceOf5visitEPNS_7AstTypeE(ptr nocapture noundef nonnull align 8 dereferenceable(32) %0, ptr noundef %1) unnamed_addr #2 align 2 {
  %3 = getelementptr inbounds i8, ptr %0, i64 24
  %4 = load ptr, ptr %3, align 8
  %.not.i = icmp eq ptr %4, null
  br i1 %.not.i, label %5, label %_ZN4Luau18FindNthOccurenceOf7checkItEPNS_7AstNodeE.exit

5:                                                ; preds = %2
  %6 = getelementptr inbounds i8, ptr %1, i64 8
  %7 = load i32, ptr %6, align 8
  %8 = getelementptr inbounds i8, ptr %0, i64 8
  %9 = load i32, ptr %8, align 8
  %10 = icmp eq i32 %7, %9
  br i1 %10, label %11, label %_ZN4Luau18FindNthOccurenceOf7checkItEPNS_7AstNodeE.exit

11:                                               ; preds = %5
  %12 = getelementptr inbounds i8, ptr %0, i64 16
  %13 = load i32, ptr %12, align 8
  %14 = add nsw i32 %13, 1
  %15 = getelementptr inbounds i8, ptr %0, i64 12
  %16 = load i32, ptr %15, align 4
  %.not5.i = icmp eq i32 %14, %16
  br i1 %.not5.i, label %18, label %17

17:                                               ; preds = %11
  store i32 %14, ptr %12, align 8
  br label %_ZN4Luau18FindNthOccurenceOf7checkItEPNS_7AstNodeE.exit

18:                                               ; preds = %11
  store ptr %1, ptr %3, align 8
  br label %_ZN4Luau18FindNthOccurenceOf7checkItEPNS_7AstNodeE.exit

_ZN4Luau18FindNthOccurenceOf7checkItEPNS_7AstNodeE.exit: ; preds = %2, %5, %17, %18
  %.0.i = phi i1 [ false, %2 ], [ true, %17 ], [ false, %18 ], [ true, %5 ]
  ret i1 %.0.i
}